target datalayout = "e-m:e-p270:32:32-p271:32:32-p272:64:64-i64:64-i128:128-f80:128-n8:16:32:64-S128"
target triple = "x86_64-pc-linux-gnu"

%struct.tcache_slow_s = type { %struct.anon, %struct.cache_bin_array_descriptor_s, ptr, i32, [39 x i8], [39 x i8], [39 x i8], ptr, ptr }
%struct.anon = type { ptr, ptr }
%struct.cache_bin_array_descriptor_s = type { %struct.anon.0, ptr }
%struct.anon.0 = type { ptr, ptr }
%struct.tcache_s = type { ptr, [76 x %struct.cache_bin_s] }
%struct.cache_bin_s = type { ptr, %struct.cache_bin_stats_s, i16, i16, i16 }
%struct.cache_bin_stats_s = type { i64 }
%struct.cache_bin_info_s = type { i16 }

@je_tcache_bin_info = hidden global ptr null, align 8

; Function Attrs: alwaysinline nounwind uwtable
define internal ptr @cache_bin_alloc_impl(ptr noundef %0, ptr noundef %1, i1 noundef zeroext %2) #1 {
  %4 = alloca ptr, align 8
  %5 = alloca ptr, align 8
  %6 = alloca ptr, align 8
  %7 = alloca i8, align 1
  %8 = alloca ptr, align 8
  %9 = alloca i16, align 2
  %10 = alloca ptr, align 8
  %11 = alloca i32, align 4
  store ptr %0, ptr %5, align 8, !tbaa !32
  store ptr %1, ptr %6, align 8, !tbaa !41
  %12 = zext i1 %2 to i8
  store i8 %12, ptr %7, align 1, !tbaa !31
  call void @llvm.lifetime.start.p0(i64 8, ptr %8) #12
  %13 = load ptr, ptr %5, align 8, !tbaa !32
  %14 = getelementptr inbounds nuw %struct.cache_bin_s, ptr %13, i32 0, i32 0
  %15 = load ptr, ptr %14, align 8, !tbaa !49
  %16 = load ptr, ptr %15, align 8, !tbaa !9
  store ptr %16, ptr %8, align 8, !tbaa !9
  call void @llvm.lifetime.start.p0(i64 2, ptr %9) #12
  %17 = load ptr, ptr %5, align 8, !tbaa !32
  %18 = getelementptr inbounds nuw %struct.cache_bin_s, ptr %17, i32 0, i32 0
  %19 = load ptr, ptr %18, align 8, !tbaa !49
  %20 = ptrtoint ptr %19 to i64
  %21 = trunc i64 %20 to i16
  store i16 %21, ptr %9, align 2, !tbaa !37
  call void @llvm.lifetime.start.p0(i64 8, ptr %10) #12
  %22 = load ptr, ptr %5, align 8, !tbaa !32
  %23 = getelementptr inbounds nuw %struct.cache_bin_s, ptr %22, i32 0, i32 0
  %24 = load ptr, ptr %23, align 8, !tbaa !49
  %25 = getelementptr inbounds ptr, ptr %24, i64 1
  store ptr %25, ptr %10, align 8, !tbaa !9
  %26 = load i16, ptr %9, align 2, !tbaa !37
  %27 = zext i16 %26 to i32
  %28 = load ptr, ptr %5, align 8, !tbaa !32
  %29 = getelementptr inbounds nuw %struct.cache_bin_s, ptr %28, i32 0, i32 2
  %30 = load i16, ptr %29, align 8, !tbaa !178
  %31 = zext i16 %30 to i32
  %32 = icmp ne i32 %27, %31
  %33 = xor i1 %32, true
  %34 = xor i1 %33, true
  %35 = zext i1 %34 to i32
  %36 = sext i32 %35 to i64
  %37 = call i64 @llvm.expect.i64(i64 %36, i64 1)
  %38 = icmp ne i64 %37, 0
  br i1 %38, label %39, label %45

39:                                               ; preds = %3
  %40 = load ptr, ptr %10, align 8, !tbaa !9
  %41 = load ptr, ptr %5, align 8, !tbaa !32
  %42 = getelementptr inbounds nuw %struct.cache_bin_s, ptr %41, i32 0, i32 0
  store ptr %40, ptr %42, align 8, !tbaa !49
  %43 = load ptr, ptr %6, align 8, !tbaa !41
  store i8 1, ptr %43, align 1, !tbaa !31
  %44 = load ptr, ptr %8, align 8, !tbaa !9
  store ptr %44, ptr %4, align 8
  store i32 1, ptr %11, align 4
  br label %77

45:                                               ; preds = %3
  %46 = load i8, ptr %7, align 1, !tbaa !31, !range !33, !noundef !34
  %47 = trunc i8 %46 to i1
  br i1 %47, label %50, label %48

48:                                               ; preds = %45
  %49 = load ptr, ptr %6, align 8, !tbaa !41
  store i8 0, ptr %49, align 1, !tbaa !31
  store ptr null, ptr %4, align 8
  store i32 1, ptr %11, align 4
  br label %77

50:                                               ; preds = %45
  %51 = load i16, ptr %9, align 2, !tbaa !37
  %52 = zext i16 %51 to i32
  %53 = load ptr, ptr %5, align 8, !tbaa !32
  %54 = getelementptr inbounds nuw %struct.cache_bin_s, ptr %53, i32 0, i32 4
  %55 = load i16, ptr %54, align 4, !tbaa !179
  %56 = zext i16 %55 to i32
  %57 = icmp ne i32 %52, %56
  %58 = xor i1 %57, true
  %59 = xor i1 %58, true
  %60 = zext i1 %59 to i32
  %61 = sext i32 %60 to i64
  %62 = call i64 @llvm.expect.i64(i64 %61, i64 1)
  %63 = icmp ne i64 %62, 0
  br i1 %63, label %64, label %75

64:                                               ; preds = %50
  %65 = load ptr, ptr %10, align 8, !tbaa !9
  %66 = load ptr, ptr %5, align 8, !tbaa !32
  %67 = getelementptr inbounds nuw %struct.cache_bin_s, ptr %66, i32 0, i32 0
  store ptr %65, ptr %67, align 8, !tbaa !49
  %68 = load ptr, ptr %10, align 8, !tbaa !9
  %69 = ptrtoint ptr %68 to i64
  %70 = trunc i64 %69 to i16
  %71 = load ptr, ptr %5, align 8, !tbaa !32
  %72 = getelementptr inbounds nuw %struct.cache_bin_s, ptr %71, i32 0, i32 2
  store i16 %70, ptr %72, align 8, !tbaa !178
  %73 = load ptr, ptr %6, align 8, !tbaa !41
  store i8 1, ptr %73, align 1, !tbaa !31
  %74 = load ptr, ptr %8, align 8, !tbaa !9
  store ptr %74, ptr %4, align 8
  store i32 1, ptr %11, align 4
  br label %77

75:                                               ; preds = %50
  %76 = load ptr, ptr %6, align 8, !tbaa !41
  store i8 0, ptr %76, align 1, !tbaa !31
  store ptr null, ptr %4, align 8
  store i32 1, ptr %11, align 4
  br label %77

77:                                               ; preds = %75, %64, %48, %39
  call void @llvm.lifetime.end.p0(i64 8, ptr %10) #12
  call void @llvm.lifetime.end.p0(i64 2, ptr %9) #12
  call void @llvm.lifetime.end.p0(i64 8, ptr %8) #12
  %78 = load ptr, ptr %4, align 8
  ret ptr %78
}

; Function Attrs: alwaysinline nounwind uwtable
define internal ptr @cache_bin_alloc(ptr noundef %0, ptr noundef %1) #1 {
  %3 = alloca ptr, align 8
  %4 = alloca ptr, align 8
  store ptr %0, ptr %3, align 8, !tbaa !32
  store ptr %1, ptr %4, align 8, !tbaa !41
  %5 = load ptr, ptr %3, align 8, !tbaa !32
  %6 = load ptr, ptr %4, align 8, !tbaa !41
  %7 = call ptr @cache_bin_alloc_impl(ptr noundef %5, ptr noundef %6, i1 noundef zeroext true)
  ret ptr %7
}

; Function Attrs: inlinehint nounwind uwtable
define internal zeroext i16 @cache_bin_info_ncached_max(ptr noundef %0) #3 {
  %2 = alloca ptr, align 8
  store ptr %0, ptr %2, align 8, !tbaa !35
  %3 = load ptr, ptr %2, align 8, !tbaa !35
  %4 = getelementptr inbounds nuw %struct.cache_bin_info_s, ptr %3, i32 0, i32 0
  %5 = load i16, ptr %4, align 2, !tbaa !45
  ret i16 %5
}

; Function Attrs: nounwind uwtable
define hidden ptr @je_tcache_alloc_small_hard(ptr noundef %0, ptr noundef %1, ptr noundef %2, ptr noundef %3, i32 noundef %4, ptr noundef %5) #0 {
  %7 = alloca ptr, align 8
  %8 = alloca ptr, align 8
  %9 = alloca ptr, align 8
  %10 = alloca ptr, align 8
  %11 = alloca i32, align 4
  %12 = alloca ptr, align 8
  %13 = alloca ptr, align 8
  %14 = alloca ptr, align 8
  %15 = alloca i32, align 4
  store ptr %0, ptr %7, align 8, !tbaa !4
  store ptr %1, ptr %8, align 8, !tbaa !40
  store ptr %2, ptr %9, align 8, !tbaa !18
  store ptr %3, ptr %10, align 8, !tbaa !32
  store i32 %4, ptr %11, align 4, !tbaa !30
  store ptr %5, ptr %12, align 8, !tbaa !41
  call void @llvm.lifetime.start.p0(i64 8, ptr %13) #12
  %16 = load ptr, ptr %9, align 8, !tbaa !18
  %17 = getelementptr inbounds nuw %struct.tcache_s, ptr %16, i32 0, i32 0
  %18 = load ptr, ptr %17, align 8, !tbaa !43
  store ptr %18, ptr %13, align 8, !tbaa !20
  call void @llvm.lifetime.start.p0(i64 8, ptr %14) #12
  br label %19

19:                                               ; preds = %6
  br label %20

20:                                               ; preds = %19
  br label %21

21:                                               ; preds = %20
  call void @llvm.lifetime.start.p0(i64 4, ptr %15) #12
  %22 = load ptr, ptr @je_tcache_bin_info, align 8, !tbaa !35
  %23 = load i32, ptr %11, align 4, !tbaa !30
  %24 = zext i32 %23 to i64
  %25 = getelementptr inbounds nuw %struct.cache_bin_info_s, ptr %22, i64 %24
  %26 = call zeroext i16 @cache_bin_info_ncached_max(ptr noundef %25)
  %27 = zext i16 %26 to i32
  %28 = load ptr, ptr %13, align 8, !tbaa !20
  %29 = getelementptr inbounds nuw %struct.tcache_slow_s, ptr %28, i32 0, i32 4
  %30 = load i32, ptr %11, align 4, !tbaa !30
  %31 = zext i32 %30 to i64
  %32 = getelementptr inbounds nuw [39 x i8], ptr %29, i64 0, i64 %31
  %33 = load i8, ptr %32, align 1, !tbaa !39
  %34 = zext i8 %33 to i32
  %35 = ashr i32 %27, %34
  store i32 %35, ptr %15, align 4, !tbaa !30
  %36 = load ptr, ptr %7, align 8, !tbaa !4
  %37 = load ptr, ptr %8, align 8, !tbaa !40
  %38 = load ptr, ptr %10, align 8, !tbaa !32
  %39 = load ptr, ptr @je_tcache_bin_info, align 8, !tbaa !35
  %40 = load i32, ptr %11, align 4, !tbaa !30
  %41 = zext i32 %40 to i64
  %42 = getelementptr inbounds nuw %struct.cache_bin_info_s, ptr %39, i64 %41
  %43 = load i32, ptr %11, align 4, !tbaa !30
  %44 = load i32, ptr %15, align 4, !tbaa !30
  call void @je_arena_cache_bin_fill_small(ptr noundef %36, ptr noundef %37, ptr noundef %38, ptr noundef %42, i32 noundef %43, i32 noundef %44)
  %45 = load ptr, ptr %13, align 8, !tbaa !20
  %46 = getelementptr inbounds nuw %struct.tcache_slow_s, ptr %45, i32 0, i32 5
  %47 = load i32, ptr %11, align 4, !tbaa !30
  %48 = zext i32 %47 to i64
  %49 = getelementptr inbounds nuw [39 x i8], ptr %46, i64 0, i64 %48
  store i8 1, ptr %49, align 1, !tbaa !31
  %50 = load ptr, ptr %10, align 8, !tbaa !32
  %51 = load ptr, ptr %12, align 8, !tbaa !41
  %52 = call ptr @cache_bin_alloc(ptr noundef %50, ptr noundef %51)
  store ptr %52, ptr %14, align 8, !tbaa !9
  %53 = load ptr, ptr %14, align 8, !tbaa !9
  call void @llvm.lifetime.end.p0(i64 4, ptr %15) #12
  call void @llvm.lifetime.end.p0(i64 8, ptr %14) #12
  call void @llvm.lifetime.end.p0(i64 8, ptr %13) #12
  ret ptr %53
}