; Function Attrs: nounwind uwtable
define hidden ptr @je_tcache_alloc_small_hard(ptr noundef %0, ptr noundef %1, ptr noundef readonly captures(none) %2, ptr noundef %3, i32 noundef %4, ptr noundef writeonly captures(none) initializes((0, 1)) %5) local_unnamed_addr #0 {
  %7 = load ptr, ptr %2, align 8, !tbaa !47
  %8 = load ptr, ptr @je_tcache_bin_info, align 8, !tbaa !42
  %9 = zext i32 %4 to i64
  %10 = getelementptr inbounds nuw %struct.cache_bin_info_s, ptr %8, i64 %9
  %.val = load i16, ptr %10, align 2, !tbaa !44
  %11 = zext i16 %.val to i32
  %12 = getelementptr inbounds nuw i8, ptr %7, i64 52
  %13 = getelementptr inbounds nuw [39 x i8], ptr %12, i64 0, i64 %9
  %14 = load i8, ptr %13, align 1, !tbaa !40
  %15 = zext nneg i8 %14 to i32
  %16 = lshr i32 %11, %15
  tail call void @je_arena_cache_bin_fill_small(ptr noundef %0, ptr noundef %1, ptr noundef %3, ptr noundef nonnull %10, i32 noundef %4, i32 noundef %16) #14
  %17 = getelementptr inbounds nuw i8, ptr %7, i64 91
  %18 = getelementptr inbounds nuw [39 x i8], ptr %17, i64 0, i64 %9
  store i8 1, ptr %18, align 1, !tbaa !20
  %19 = load ptr, ptr %3, align 8, !tbaa !41
  %20 = load ptr, ptr %19, align 8, !tbaa !49
  %21 = ptrtoint ptr %19 to i64
  %22 = getelementptr inbounds nuw i8, ptr %19, i64 8
  %23 = getelementptr inbounds nuw i8, ptr %3, i64 16
  %24 = load i16, ptr %23, align 8, !tbaa !35
  %25 = trunc i64 %21 to i16
  %.not.i = icmp eq i16 %24, %25
  br i1 %.not.i, label %27, label %26, !prof !4

26:                                               ; preds = %6
  store ptr %22, ptr %3, align 8, !tbaa !41
  br label %cache_bin_alloc_impl.exit

27:                                               ; preds = %6
  %28 = getelementptr inbounds nuw i8, ptr %3, i64 20
  %29 = load i16, ptr %28, align 4, !tbaa !39
  %.not21.i = icmp eq i16 %29, %24
  br i1 %.not21.i, label %cache_bin_alloc_impl.exit, label %30, !prof !4

30:                                               ; preds = %27
  store ptr %22, ptr %3, align 8, !tbaa !41
  %31 = ptrtoint ptr %22 to i64
  %32 = trunc i64 %31 to i16
  store i16 %32, ptr %23, align 8, !tbaa !35
  br label %cache_bin_alloc_impl.exit

cache_bin_alloc_impl.exit:                        ; preds = %27, %26, %30
  %.sink = phi i8 [ 1, %26 ], [ 1, %30 ], [ 0, %27 ]
  %.0.i = phi ptr [ %20, %26 ], [ %20, %30 ], [ null, %27 ]
  store i8 %.sink, ptr %5, align 1, !tbaa !20
  ret ptr %.0.i
}